ccopy_reg
_reconstructor
p0
(csklearn.pipeline
Pipeline
p1
c__builtin__
object
p2
Ntp3
Rp4
(dp5
S'_sklearn_version'
p6
S'0.18.1'
p7
sS'steps'
p8
(lp9
(S'vect'
p10
g0
(csklearn.feature_extraction.text
CountVectorizer
p11
g2
Ntp12
Rp13
(dp14
S'decode_error'
p15
S'ignore'
p16
sS'lowercase'
p17
I01
sS'stop_words'
p18
NsS'vocabulary'
p19
NsS'tokenizer'
p20
NsS'encoding'
p21
Vutf-8
p22
sS'token_pattern'
p23
V(?u)\u005cb\u005cw\u005cw+\u005cb
p24
sS'analyzer'
p25
Vword
p26
sS'binary'
p27
I00
sS'ngram_range'
p28
(I1
I1
tp29
sg6
g7
sS'max_df'
p30
F1.0
sS'min_df'
p31
I1
sS'max_features'
p32
NsS'input'
p33
Vcontent
p34
sS'strip_accents'
p35
NsS'dtype'
p36
cnumpy
int64
p37
sS'preprocessor'
p38
Nsbtp39
a(S'tfidf'
p40
g0
(csklearn.feature_extraction.text
TfidfTransformer
p41
g2
Ntp42
Rp43
(dp44
S'use_idf'
p45
I01
sS'smooth_idf'
p46
I01
sg6
g7
sS'sublinear_tf'
p47
I00
sS'norm'
p48
Vl2
p49
sbtp50
a(S'clf'
p51
g0
(csklearn.linear_model.stochastic_gradient
SGDClassifier
p52
g2
Ntp53
Rp54
(dp55
S't_'
p56
NsS'C'
p57
F1.0
sS'n_jobs'
p58
I1
sS'shuffle'
p59
I01
sS'verbose'
p60
I0
sS'n_iter'
p61
I1000
sS'epsilon'
p62
F0.1
sS'learning_rate'
p63
S'optimal'
p64
sS'classes_'
p65
NsS'coef_'
p66
NsS'alpha'
p67
F0.001
sS'class_weight'
p68
NsS'warm_start'
p69
I00
sS'loss'
p70
S'hinge'
p71
sS'eta0'
p72
F0.0
sS'fit_intercept'
p73
I01
sS'l1_ratio'
p74
F0.15
sS'average'
p75
I00
sS'penalty'
p76
S'l2'
p77
sS'power_t'
p78
F0.5
sS'random_state'
p79
I42
sg6
g7
sbtp80
asb.